{
   <socketcall_sendto>
   Memcheck:Param
   socketcall.sendto(msg)
   fun:send
   ...
}
{
   <socketcall_sendto>
   Memcheck:Param
   socketcall.send(msg)
   fun:send
   ...
}
{
   <cxxtools_locale_init_01>
   Memcheck:Leak
   match-leak-kinds: reachable
   fun:_Znwm
   fun:_ZN8cxxtools10InitLocaleC1Ev
   fun:__static_initialization_and_destruction_0
   fun:_GLOBAL__sub_I__Z14test_availablePKc
   fun:__libc_csu_init
   fun:(below main)
}
{
   <cxxtools_locale_init_02>
   Memcheck:Leak
   match-leak-kinds: reachable
   fun:_Znam
   fun:_ZNSt6locale5_ImplC1ERKS0_m
   fun:_ZNSt6localeC1ISt7num_putIN8cxxtools4CharESt19ostreambuf_iteratorIS3_St11char_traitsIS3_EEEEERKS_PT_
   fun:_ZN8cxxtools10InitLocaleC1Ev
   fun:__static_initialization_and_destruction_0
   fun:_GLOBAL__sub_I__Z14test_availablePKc
   fun:__libc_csu_init
   fun:(below main)
}
{
    <cxxtools_locale_init_03>
    Memcheck:Leak
    match-leak-kinds: reachable
    fun:_Znwm
    fun:_ZNSt6localeC1ISt7num_putIN8cxxtools4CharESt19ostreambuf_iteratorIS3_St11char_traitsIS3_EEEEERKS_PT_
    fun:_ZN8cxxtools10InitLocaleC1Ev
    fun:__static_initialization_and_destruction_0
    fun:_GLOBAL__sub_I__Z14test_availablePKc
    fun:__libc_csu_init
    fun:(below main)
}
{
    <glibc_eh_alloc_glibc_bug_66339>
        Memcheck:Leak
        match-leak-kinds: reachable
        fun:malloc
        fun:pool
        fun:__static_initialization_and_destruction_0
        fun:_GLOBAL__sub_I_eh_alloc.cc
        fun:call_init.part.0
        fun:call_init
        fun:_dl_init
        obj:/lib64/ld-2.19.so
}
{
   <cxxtools_locale_facets01>
   Memcheck:Leak
   match-leak-kinds: reachable
   fun:_Znam
   fun:_ZNSt16__numpunct_cacheIN8cxxtools4CharEE8_M_cacheERKSt6locale
   fun:operator()
   fun:_ZNKSt7num_putIN8cxxtools4CharESt19ostreambuf_iteratorIS1_St11char_traitsIS1_EEE13_M_insert_intIyEES5_S5_RSt8ios_baseS1_T_
   fun:_ZNKSt7num_putIN8cxxtools4CharESt19ostreambuf_iteratorIS1_St11char_traitsIS1_EEE6do_putES5_RSt8ios_baseS1_y
   fun:_ZNSt13basic_ostreamIN8cxxtools4CharESt11char_traitsIS1_EE9_M_insertIyEERS4_T_
   fun:_ZN8cxxtools13JsonFormatter16addValueUnsignedERKSsS2_y
   fun:_ZN8cxxtools11IDecomposer10formatEachERKNS_17SerializationInfoERNS_9FormatterE
   fun:_ZN8cxxtools11IDecomposer10formatEachERKNS_17SerializationInfoERNS_9FormatterE
   fun:_ZN8cxxtools11IDecomposer10formatEachERKNS_17SerializationInfoERNS_9FormatterE
   fun:_ZN8cxxtools11IDecomposer10formatEachERKNS_17SerializationInfoERNS_9FormatterE
   fun:format
   fun:serialize<std::map<std::pair<std::basic_string<char>, std::basic_string<char> >, Alert> >
   fun:save_alerts_state
   ...
}
{
   <cxxtools_locale_facets03>
   Memcheck:Leak
   match-leak-kinds: reachable
   fun:_Znwm
   fun:operator()
   fun:_ZNKSt7num_putIN8cxxtools4CharESt19ostreambuf_iteratorIS1_St11char_traitsIS1_EEE13_M_insert_intIyEES5_S5_RSt8ios_baseS1_T_
   fun:_ZNKSt7num_putIN8cxxtools4CharESt19ostreambuf_iteratorIS1_St11char_traitsIS1_EEE6do_putES5_RSt8ios_baseS1_y
   fun:_ZNSt13basic_ostreamIN8cxxtools4CharESt11char_traitsIS1_EE9_M_insertIyEERS4_T_
   fun:_ZN8cxxtools13JsonFormatter16addValueUnsignedERKSsS2_y
   fun:_ZN8cxxtools11IDecomposer10formatEachERKNS_17SerializationInfoERNS_9FormatterE
   fun:_ZN8cxxtools11IDecomposer10formatEachERKNS_17SerializationInfoERNS_9FormatterE
   fun:_ZN8cxxtools11IDecomposer10formatEachERKNS_17SerializationInfoERNS_9FormatterE
   fun:_ZN8cxxtools11IDecomposer10formatEachERKNS_17SerializationInfoERNS_9FormatterE
   fun:format
   fun:serialize<std::map<std::pair<std::basic_string<char>, std::basic_string<char> >, Alert> >
   fun:save_alerts_state
   fun:bios_smtp_server
   ...
}
{
   <cxxtools_locale_facets04>
   Memcheck:Leak
   match-leak-kinds: reachable
   fun:_Znwm
   fun:operator()
   fun:_ZNKSt7num_putIN8cxxtools4CharESt19ostreambuf_iteratorIS1_St11char_traitsIS1_EEE13_M_insert_intIyEES5_S5_RSt8ios_baseS1_T_
   fun:_ZNSt13basic_ostreamIN8cxxtools4CharESt11char_traitsIS1_EE9_M_insertIyEERS4_T_
   fun:_ZN8cxxtools13JsonFormatter16addValueUnsignedERKSsS2_y
   fun:_ZN8cxxtools11IDecomposer10formatEachERKNS_17SerializationInfoERNS_9FormatterE
   fun:_ZN8cxxtools11IDecomposer10formatEachERKNS_17SerializationInfoERNS_9FormatterE
   fun:_ZN8cxxtools11IDecomposer10formatEachERKNS_17SerializationInfoERNS_9FormatterE
   fun:_ZN8cxxtools11IDecomposer10formatEachERKNS_17SerializationInfoERNS_9FormatterE
   fun:format
   fun:serialize<std::map<std::pair<std::basic_string<char>, std::basic_string<char> >, Alert> >
   fun:_ZL17save_alerts_stateRKSt3mapISt4pairISsSsE5AlertSt4lessIS1_ESaIS0_IKS1_S2_EEEPKc
   fun:bios_smtp_server
   obj:/usr/lib/libczmq.so.3.0.0
   fun:start_thread
}
{
   <suppress_memory_leak_in_libmagic_see_BIOS-2893>
   Memcheck:Leak
   match-leak-kinds: indirect
   fun:malloc
   obj:/usr/lib/x86_64-linux-gnu/libmagic.so.1.0.0
   obj:/usr/lib/x86_64-linux-gnu/libmagic.so.1.0.0
   fun:_ZN4SmtpC1Ev
   fun:_Z10email_testb
   fun:main
}
{
   <suppress_an_another_memory_leak_in_libmagic_see_BIOS-2893>
   Memcheck:Leak
   match-leak-kinds: definite
   fun:calloc
   obj:/usr/lib/x86_64-linux-gnu/libmagic.so.1.0.0
   obj:/usr/lib/x86_64-linux-gnu/libmagic.so.1.0.0
   fun:_ZN4SmtpC1Ev
   fun:_Z10email_testb
   fun:main
}
